target datalayout = "e-m:e-p270:32:32-p271:32:32-p272:64:64-i64:64-i128:128-f80:128-n8:16:32:64-S128"
target triple = "x86_64-pc-linux-gnu"

%class.MLRenderingToolbar = type { %class.QToolBar, %class.QList, i32, ptr, %class.QMap, %class.QMap.1, ptr }
%class.QToolBar = type { %class.QWidget }
%class.QWidget = type { %class.QObject, %class.QPaintDevice, ptr }
%class.QObject = type { ptr, %class.QScopedPointer }
%class.QScopedPointer = type { ptr }
%class.QPaintDevice = type { ptr, i16, ptr }
%class.QList = type { %union.anon }
%union.anon = type { %struct.QListData }
%struct.QListData = type { ptr }
%class.QMap = type { ptr }
%class.QMap.1 = type { ptr }
%class.QFrame = type { %class.QWidget }
%class.MLRenderingParametersFrame.base = type <{ %class.QFrame, i32 }>
%class.MLRenderingOnOffToolbar = type { %class.QToolBar, i32, ptr, ptr, ptr }
%class.MLRenderingBBoxParametersFrame = type { %class.MLRenderingParametersFrame.base, ptr, ptr, ptr, ptr, ptr }

; Function Attrs: mustprogress nounwind uwtable
define noundef ptr @_ZN23MLRenderingOnOffToolbar18getRenderingActionEv(ptr noundef nonnull align 8 dereferenceable(80) %0) #4 align 2 {
  %2 = alloca ptr, align 8
  store ptr %0, ptr %2, align 8
  %3 = load ptr, ptr %2, align 8
  %4 = getelementptr inbounds %class.MLRenderingOnOffToolbar, ptr %3, i32 0, i32 2
  %5 = load ptr, ptr %4, align 8
  ret ptr %5
}

; Function Attrs: mustprogress uwtable
define linkonce_odr void @_ZN5QListIP17MLRenderingActionE6appendERKS2_(ptr noundef nonnull align 8 dereferenceable(8) %0, ptr noundef nonnull align 8 dereferenceable(8) %1) #5 comdat align 2 {
  %3 = alloca ptr, align 8
  %4 = alloca ptr, align 8
  store ptr %0, ptr %3, align 8
  store ptr %1, ptr %4, align 8
  %5 = load ptr, ptr %3, align 8
  %6 = load ptr, ptr %4, align 8
  %7 = call noundef nonnull align 8 dereferenceable(8) ptr @_ZN5QListIP17MLRenderingActionEpLERKS2_(ptr noundef nonnull align 8 dereferenceable(8) %5, ptr noundef nonnull align 8 dereferenceable(8) %6)
  ret void
}

; Function Attrs: mustprogress nounwind uwtable
define noundef nonnull align 8 dereferenceable(8) ptr @_ZN18MLRenderingToolbar19getRenderingActionsEv(ptr noundef nonnull align 8 dereferenceable(96) %0) #4 align 2 {
  %2 = alloca ptr, align 8
  store ptr %0, ptr %2, align 8
  %3 = load ptr, ptr %2, align 8
  %4 = getelementptr inbounds %class.MLRenderingToolbar, ptr %3, i32 0, i32 1
  ret ptr %4
}

; Function Attrs: mustprogress uwtable
define void @_ZN30MLRenderingBBoxParametersFrame11actionsListER5QListIP17MLRenderingActionE(ptr noundef nonnull align 8 dereferenceable(96) %0, ptr noundef nonnull align 8 dereferenceable(8) %1) unnamed_addr #5 align 2 {
  %3 = alloca ptr, align 8
  %4 = alloca ptr, align 8
  %5 = alloca ptr, align 8
  store ptr %0, ptr %3, align 8
  store ptr %1, ptr %4, align 8
  %6 = load ptr, ptr %3, align 8
  %7 = load ptr, ptr %4, align 8
  %8 = getelementptr inbounds %class.MLRenderingBBoxParametersFrame, ptr %6, i32 0, i32 2
  %9 = load ptr, ptr %8, align 8
  %10 = call noundef nonnull align 8 dereferenceable(8) ptr @_ZN18MLRenderingToolbar19getRenderingActionsEv(ptr noundef nonnull align 8 dereferenceable(96) %9)
  call void @_ZN5QListIP17MLRenderingActionE6appendERKS2_(ptr noundef nonnull align 8 dereferenceable(8) %7, ptr noundef nonnull align 8 dereferenceable(8) %10)
  %11 = load ptr, ptr %4, align 8
  %12 = getelementptr inbounds %class.MLRenderingBBoxParametersFrame, ptr %6, i32 0, i32 5
  %13 = load ptr, ptr %12, align 8
  %14 = call noundef ptr @_ZN23MLRenderingOnOffToolbar18getRenderingActionEv(ptr noundef nonnull align 8 dereferenceable(80) %13)
  store ptr %14, ptr %5, align 8
  call void @_ZN5QListIP17MLRenderingActionE6appendERKS1_(ptr noundef nonnull align 8 dereferenceable(8) %11, ptr noundef nonnull align 8 dereferenceable(8) %5)
  ret void
}